target datalayout = "e-m:e-p270:32:32-p271:32:32-p272:64:64-i64:64-i128:128-f80:128-n8:16:32:64-S128"
target triple = "x86_64-pc-linux-gnu"

; Function Attrs: nounwind uwtable
define internal void @mmio_write32(ptr noundef %0, i32 noundef %1) #0 {
  %3 = alloca ptr, align 8
  %4 = alloca i32, align 4
  store ptr %0, ptr %3, align 8
  store i32 %1, ptr %4, align 4
  %5 = load i32, ptr %4, align 4
  %6 = load ptr, ptr %3, align 8
  call void asm sideeffect "movl $0,($1)", "r,r,~{dirflag},~{fpsr},~{flags}"(i32 %5, ptr %6) #4, !srcloc !6
  ret void
}

; Function Attrs: nounwind uwtable
define internal i64 @read_msr(i32 noundef %0) #0 {
  %2 = alloca i32, align 4
  %3 = alloca i32, align 4
  %4 = alloca i32, align 4
  store i32 %0, ptr %2, align 4
  %5 = load i32, ptr %2, align 4
  %6 = call { i32, i32 } asm sideeffect "rdmsr", "={ax},={dx},{cx},~{dirflag},~{fpsr},~{flags}"(i32 %5) #4, !srcloc !12
  %7 = extractvalue { i32, i32 } %6, 0
  %8 = extractvalue { i32, i32 } %6, 1
  store i32 %7, ptr %3, align 4
  store i32 %8, ptr %4, align 4
  %9 = load i32, ptr %3, align 4
  %10 = zext i32 %9 to i64
  %11 = load i32, ptr %4, align 4
  %12 = zext i32 %11 to i64
  %13 = shl i64 %12, 32
  %14 = or i64 %10, %13
  ret i64 %14
}

; Function Attrs: nounwind uwtable
define void @up_ioapic_write(i32 noundef %0, i32 noundef %1) #0 {
  %3 = alloca i32, align 4
  %4 = alloca i32, align 4
  store i32 %0, ptr %3, align 4
  store i32 %1, ptr %4, align 4
  %5 = load i32, ptr %3, align 4
  %6 = inttoptr i64 4273995776 to ptr
  call void @mmio_write32(ptr noundef %6, i32 noundef %5)
  %7 = load i32, ptr %4, align 4
  %8 = inttoptr i64 4273995776 to ptr
  %9 = getelementptr inbounds i8, ptr %8, i64 16
  call void @mmio_write32(ptr noundef %9, i32 noundef %7)
  ret void
}

; Function Attrs: nounwind uwtable
define internal i32 @up_apic_cpu_id() #0 {
  %1 = call i64 @read_msr(i32 noundef 2050)
  %2 = trunc i64 %1 to i32
  ret i32 %2
}

; Function Attrs: nounwind uwtable
define void @up_ioapic_pin_set_vector(i32 noundef %0, i32 noundef %1, i32 noundef %2) #0 {
  %4 = alloca i32, align 4
  %5 = alloca i32, align 4
  %6 = alloca i32, align 4
  store i32 %0, ptr %4, align 4
  store i32 %1, ptr %5, align 4
  store i32 %2, ptr %6, align 4
  %7 = load i32, ptr %4, align 4
  %8 = mul i32 %7, 2
  %9 = add i32 16, %8
  %10 = add i32 %9, 1
  %11 = call i32 @up_apic_cpu_id()
  %12 = shl i32 %11, 24
  call void @up_ioapic_write(i32 noundef %10, i32 noundef %12)
  %13 = load i32, ptr %4, align 4
  %14 = mul i32 %13, 2
  %15 = add i32 16, %14
  %16 = load i32, ptr %5, align 4
  %17 = load i32, ptr %6, align 4
  %18 = or i32 %16, %17
  call void @up_ioapic_write(i32 noundef %15, i32 noundef %18)
  ret void
}