; Function Attrs: nounwind uwtable
define void @up_ioapic_pin_set_vector(i32 noundef %0, i32 noundef %1, i32 noundef %2) local_unnamed_addr #0 {
  %4 = shl i32 %0, 1
  %5 = add i32 %4, 16
  %6 = add i32 %4, 17
  %7 = tail call { i32, i32 } asm sideeffect "rdmsr", "={ax},={dx},{cx},~{dirflag},~{fpsr},~{flags}"(i32 2050) #4, !srcloc !8
  %8 = extractvalue { i32, i32 } %7, 0
  %9 = shl i32 %8, 24
  tail call void asm sideeffect "movl $0,($1)", "r,r,~{dirflag},~{fpsr},~{flags}"(i32 %6, ptr nonnull inttoptr (i64 4273995776 to ptr)) #4, !srcloc !6
  tail call void asm sideeffect "movl $0,($1)", "r,r,~{dirflag},~{fpsr},~{flags}"(i32 %9, ptr nonnull inttoptr (i64 4273995792 to ptr)) #4, !srcloc !6
  %10 = or i32 %2, %1
  tail call void asm sideeffect "movl $0,($1)", "r,r,~{dirflag},~{fpsr},~{flags}"(i32 %5, ptr nonnull inttoptr (i64 4273995776 to ptr)) #4, !srcloc !6
  tail call void asm sideeffect "movl $0,($1)", "r,r,~{dirflag},~{fpsr},~{flags}"(i32 %10, ptr nonnull inttoptr (i64 4273995792 to ptr)) #4, !srcloc !6
  ret void
}